ccopy_reg
_reconstructor
p0
(cNavCar
Track
p1
c__builtin__
object
p2
Ntp3
Rp4
(dp5
S'width'
p6
F0.3
sS'points'
p7
(lp8
(F-1.7704428126746776
F-0.46309239442848055
tp9
a(F-1.9390781043878167
F-0.3762196711869203
tp10
a(F-2.2201369239097155
F-0.05938973936475984
tp11
a(F-2.3478909327833053
F0.15523698864380056
tp12
a(F-2.3478909327833053
F0.4465161195125607
tp13
a(F-2.235467404974546
F0.7275749299999611
tp14
a(F-1.882866340483437
F1.0597353423941616
tp15
a(F-1.3974011067637941
F1.156828386017082
tp16
a(F-0.8966053919793205
F1.1874893471611618
tp17
a(F-0.3447080736454107
F1.0546251822034818
tp18
a(F0.028333632265472645
F0.9473118181992015
tp19
a(F0.49335822456534134
F0.7122444494279212
tp20
a(F0.8970608926058862
F0.7633460513347211
tp21
a(F1.1730095517728416
F0.9319813376271616
tp22
a(F1.6533646251375407
F0.9524219783898813
tp23
a(F2.051957132823142
F0.7582358911440413
tp24
a(F2.13371969850224
F0.1756776294065203
tp25
a(F2.149050179567071
F-0.48353303519120044
tp26
a(F1.8219999168506793
F-0.9843287338778411
tp27
a(F1.2649924381618265
F-1.1836249813143616
tp28
a(F1.0554758636091386
F-1.2091757822677616
tp29
a(F0.702874799118029
F-1.1785148211236816
tp30
a(F0.3604940553368072
F-0.9638880931151209
tp31
a(F0.156087641139063
F-0.6112870399582008
tp32
a(F-0.18118294228721502
F-0.3864399915682804
tp33
a(F-0.5388941671332678
F-0.3455587100428404
tp34
a(F-0.7892920245255047
F-0.3915501517589604
tp35
a(F-1.1163422872418955
F-0.5448549574793607
tp36
a(F-1.3718503049890762
F-0.5959565593861607
tp37
asS'closed'
p38
I01
sb.