ccopy_reg
_reconstructor
p0
(cNavCar
Track
p1
c__builtin__
object
p2
Ntp3
Rp4
(dp5
S'width'
p6
F0.3
sS'points'
p7
(lp8
(F-0.11857805589152712
F-0.846103561598132
tp9
a(F-0.6521058940048091
F-0.5994186394537966
tp10
a(F-0.8586327990809183
F-0.25520712018263103
tp11
a(F-0.944685676195964
F0.13489926832469012
tp12
a(F-0.852895940606582
F0.4733739289413362
tp13
a(F-0.5258950075694092
F0.7831642962853851
tp14
a(F-0.0038408864047995983
F0.995428066502604
tp15
a(F0.5468975271314913
F1.253586705955978
tp16
a(F1.0976359406677827
F1.500271628100314
tp17
a(F1.533637108617608
F1.9420102007363207
tp18
a(F1.6024794103096442
F2.251800568080369
tp19
a(F1.585268834886635
F2.6419069565876905
tp20
a(F1.2353204679521168
F2.9287498893136616
tp21
a(F0.5813186018777707
F2.957434182586259
tp22
a(F0.11663306545652519
F2.905802454695584
tp23
a(F-0.16447299978595697
F2.64764381524221
tp24
a(F-0.21610472605498432
F2.286221720007486
tp25
a(F-0.08989383961958403
F1.9075890488092038
tp26
a(F0.05352762223882501
F1.695325278591985
tp27
a(F0.21989651799457963
F1.4887983670292857
tp28
a(F0.5583711679804252
F1.156060565067159
tp29
a(F0.8624246671202528
F0.7946384698324352
tp30
a(F1.3672682128618532
F0.34142663612540036
tp31
a(F1.6287034057495235
F-0.21100277474639942
tp32
a(F1.5290864486651081
F-0.5563415701520928
tp33
a(F1.3032880126071018
F-0.788781143982848
tp34
a(F0.6790217482114353
F-0.9216037576004228
tp35
a(F0.3071184417629536
F-0.9282448882813013
tp36
asS'closed'
p37
I01
sb.