ccopy_reg
_reconstructor
p0
(cNavCar
Track
p1
c__builtin__
object
p2
Ntp3
Rp4
(dp5
S'width'
p6
F0.3
sS'points'
p7
(lp8
(F2.0010567016753518
F0.13773528330531834
tp9
a(F2.0382829516599617
F-0.040123459929700095
tp10
a(F2.0506917016548316
F-0.2841622006475162
tp11
a(F1.9514217016958715
F-0.5819721893201053
tp12
a(F1.7735629517694018
F-0.7805121817684981
tp13
a(F1.595704201842932
F-0.8053296808245473
tp14
a(F1.3971642019250117
F-0.8177384303525717
tp15
a(F1.1283079520361619
F-0.706059684600351
tp16
a(F0.9545854521079821
F-0.3875684467143874
tp17
a(F0.7974079521729621
F-0.20143720379401925
tp18
a(F0.47064420230805154
F-0.18075595458064492
tp19
a(F0.251422952398682
F-0.21798220316471853
tp20
a(F0.15628920243801153
F-0.40411344608508687
tp21
a(F0.028065452491021926
F-0.648152186802903
tp22
a(F-0.12911204744399807
F-0.8797821779926946
tp23
a(F-0.41451329732600833
F-0.8797821779926946
tp24
a(F-0.7991845471669781
F-0.7556946827124491
tp25
a(F-1.0308145470712182
F-0.5902446890054551
tp26
a(F-1.1176757970353084
F-0.3007072000182156
tp27
a(F-1.1011307970421482
F-0.04425970977237496
tp28
a(F-1.0556320470609584
F0.3114577766976623
tp29
a(F-0.981179547091738
F0.5389515180447788
tp30
a(F-0.6957782972097282
F0.857442755930742
tp31
a(F-0.47655704730035814
F0.8946690045148157
tp32
a(F-0.24079079739782816
F0.7664452593918955
tp33
a(F-0.07947704746451816
F0.5885865161568768
tp34
a(F0.11906295245340183
F0.5182702688314047
tp35
a(F0.3672379523508017
F0.509997769146055
tp36
a(F0.5368242022806916
F0.5885865161568768
tp37
a(F0.5699142022670121
F0.7168102612797974
tp38
a(F0.7064104522105816
F1.027028999480411
tp39
a(F0.8801329521387621
F1.1924789931874051
tp40
a(F1.3020304519643418
F1.221432742086129
tp41
a(F1.6825654518070219
F1.134571495389957
tp42
a(F1.8645604517317815
F0.8988052543574907
tp43
a(F1.9017867017163919
F0.7209465111224721
tp44
a(F1.9514217016958715
F0.4024552732365089
tp45
asS'closed'
p46
I01
sb.