ccopy_reg
_reconstructor
p0
(cNavCar
Track
p1
c__builtin__
object
p2
Ntp3
Rp4
(dp5
S'width'
p6
F0.3
sS'points'
p7
(lp8
(F-0.04565266704427517
F-0.3473061565388348
tp9
a(F-0.410304518883247
F-0.46379216476517293
tp10
a(F-1.0535098686547668
F-0.3270477203255586
tp11
a(F-1.2915464941607624
F0.3921267652457471
tp12
a(F-1.2409004036275717
F0.8276831438311859
tp13
a(F-0.7395041073489855
F0.9796214154307575
tp14
a(F-0.09629875757746571
F1.0302675059639481
tp15
a(F0.6127465098872018
F0.9846860244840765
tp16
a(F1.1090781971124692
F0.8682000162577381
tp17
a(F1.382567085991698
F0.4934189463121281
tp18
a(F1.377502476938379
F0.03760413151341334
tp19
a(F1.2002411600722123
F-0.4739213828718112
tp20
a(F0.9723337526728547
F-0.7879271441775925
tp21
a(F0.5975526827272448
F-0.8993485433506118
tp22
a(F0.3848391024878444
F-0.8284440166041449
tp23
a(F0.2936761395281016
F-0.6916995721645304
tp24
asS'closed'
p25
I01
sb.