ccopy_reg
_reconstructor
p0
(cNavCar
Track
p1
c__builtin__
object
p2
Ntp3
Rp4
(dp5
S'width'
p6
F0.3
sS'points'
p7
(lp8
(F-0.4024439164438539
F-1.0471238690784266
tp9
a(F-0.8394315785663848
F-0.9291371957625758
tp10
a(F-1.3594468964921962
F-0.7674517545519657
tp11
a(F-1.5342419613412086
F-0.41786161139388944
tp12
a(F-1.5823106041746868
F0.10652360334322503
tp13
a(F-1.5080227016138565
F0.5304016519223926
tp14
a(F-1.2978199654781526
F0.9686847124078676
tp15
a(F-0.9445358654314776
F1.3223019620056273
tp16
a(F-0.716953400597185
F1.3772356625289826
tp17
a(F-0.33241751173924294
F1.2752159329856085
tp18
a(F-0.05774901969785595
F0.7729649567720718
tp19
a(F-0.03420600609430846
F0.52968714016864
tp20
a(F-0.06559669089903841
F0.16084657951182454
tp21
a(F0.02072769231396887
F-0.18445096663498178
tp22
a(F0.30324385555653877
F-0.31001371068836586
tp23
a(F0.7584087852251233
F-0.3806427542183944
tp24
a(F0.860428510840496
F-0.26292768166834696
tp25
a(F0.9389052228523208
F0.09806520748513237
tp26
a(F0.9389052228523208
F0.5375348116719765
tp27
a(F0.9232098804499559
F1.0005474303688306
tp28
a(F0.9232098804499559
F1.2516729184755988
tp29
a(F1.0409249484676935
F1.5498844356023858
tp30
a(F1.2135737148937082
F1.6362088221390876
tp31
a(F1.5745665901481025
F1.5891227931190683
tp32
a(F1.9277117942013149
F1.3301496335089638
tp33
a(F2.1003605606273292
F1.008395101872167
tp34
a(F2.1709896014379724
F0.5610778261819861
tp35
a(F2.178837272639155
F0.26286630905519914
tp36
a(F2.1003605606273292
F-0.34925206820504856
tp37
a(F1.841387410988308
F-0.8122646869019023
tp38
a(F1.5431759053433725
F-1.1497145615453719
tp39
a(F1.2371167284972553
F-1.2595819625920832
tp40
a(F0.829037826035766
F-1.2360389480820735
tp41
asS'closed'
p42
I01
sb.